(dp0
S'neighborhood'
p1
(lp2
Va
p3
aVb
p4
aVBridgeport
p5
aVBridgeport
p6
aVVarious
p7
asS'name'
p8
(lp9
Va
p10
aVb
p11
aVFredie's
p12
aVFreddie's
p13
aVMovies
p14
asS'region'
p15
(lp16
Va
p17
aVb
p18
aVNear South Side
p19
aVNear South Side
p20
aVVarious
p21
asS'time'
p22
(lp23
Va
p24
aVb
p25
aV20
p26
aV20
p27
aV120
p28
asS'reservation'
p29
(lp30
Va
p31
aVb
p32
aVN
p33
aVN
p34
aVN
p35
asS'type'
p36
(lp37
Va
p38
aVb
p39
aVR
p40
aVR
p41
aVA
p42
asS'price'
p43
(lp44
Va
p45
aVb
p46
aV$$
p47
aV$$
p48
aV$$
p49
as.