(dp0
S'neighborhood'
p1
(lp2
VBridgeport
p3
asS'name'
p4
(lp5
VFreddie's
p6
asS'region'
p7
(lp8
VNear South Side
p9
asS'time'
p10
(lp11
V20
p12
asS'reservation'
p13
(lp14
VN
p15
asS'type'
p16
(lp17
VR
p18
asS'price'
p19
(lp20
V$$
p21
as.